; ModuleID = '23/578.cpp'
source_filename = "23/578.cpp"
target datalayout = "e-m:e-p270:32:32-p271:32:32-p272:64:64-i64:64-f80:128-n8:16:32:64-S128"
target triple = "x86_64-pc-linux-gnu"

%"class.std::ios_base::Init" = type { i8 }
%"class.std::basic_istream" = type { i32 (...)**, i64, %"class.std::basic_ios" }
%"class.std::basic_ios" = type { %"class.std::ios_base", %"class.std::basic_ostream"*, i8, i8, %"class.std::basic_streambuf"*, %"class.std::ctype"*, %"class.std::num_put"*, %"class.std::num_get"* }
%"class.std::ios_base" = type { i32 (...)**, i64, i64, i32, i32, i32, %"struct.std::ios_base::_Callback_list"*, %"struct.std::ios_base::_Words", [8 x %"struct.std::ios_base::_Words"], i32, %"struct.std::ios_base::_Words"*, %"class.std::locale" }
%"struct.std::ios_base::_Callback_list" = type { %"struct.std::ios_base::_Callback_list"*, void (i32, %"class.std::ios_base"*, i32)*, i32, i32 }
%"struct.std::ios_base::_Words" = type { i8*, i64 }
%"class.std::locale" = type { %"class.std::locale::_Impl"* }
%"class.std::locale::_Impl" = type { i32, %"class.std::locale::facet"**, i64, %"class.std::locale::facet"**, i8** }
%"class.std::locale::facet" = type <{ i32 (...)**, i32, [4 x i8] }>
%"class.std::basic_ostream" = type { i32 (...)**, %"class.std::basic_ios" }
%"class.std::basic_streambuf" = type { i32 (...)**, i8*, i8*, i8*, i8*, i8*, i8*, %"class.std::locale" }
%"class.std::ctype" = type <{ %"class.std::locale::facet.base", [4 x i8], %struct.__locale_struct*, i8, [7 x i8], i32*, i32*, i16*, i8, [256 x i8], [256 x i8], i8, [6 x i8] }>
%"class.std::locale::facet.base" = type <{ i32 (...)**, i32 }>
%struct.__locale_struct = type { [13 x %struct.__locale_data*], i16*, i32*, i32*, [13 x i8*] }
%struct.__locale_data = type opaque
%"class.std::num_put" = type { %"class.std::locale::facet.base", [4 x i8] }
%"class.std::num_get" = type { %"class.std::locale::facet.base", [4 x i8] }

@_ZStL8__ioinit = internal global %"class.std::ios_base::Init" zeroinitializer, align 1
@__dso_handle = external hidden global i8
@_ZSt3cin = external dso_local global %"class.std::basic_istream", align 8
@_ZSt4cout = external dso_local global %"class.std::basic_ostream", align 8
@.str = private unnamed_addr constant [2 x i8] c" \00", align 1
@llvm.global_ctors = appending global [1 x { i32, void ()*, i8* }] [{ i32, void ()*, i8* } { i32 65535, void ()* @_GLOBAL__sub_I_578.cpp, i8* null }]

; Function Attrs: noinline uwtable
define internal void @__cxx_global_var_init() #0 section ".text.startup" {
  call void @_ZNSt8ios_base4InitC1Ev(%"class.std::ios_base::Init"* @_ZStL8__ioinit)
  %1 = call i32 @__cxa_atexit(void (i8*)* bitcast (void (%"class.std::ios_base::Init"*)* @_ZNSt8ios_base4InitD1Ev to void (i8*)*), i8* getelementptr inbounds (%"class.std::ios_base::Init", %"class.std::ios_base::Init"* @_ZStL8__ioinit, i32 0, i32 0), i8* @__dso_handle) #3
  ret void
}

declare dso_local void @_ZNSt8ios_base4InitC1Ev(%"class.std::ios_base::Init"*) unnamed_addr #1

; Function Attrs: nounwind
declare dso_local void @_ZNSt8ios_base4InitD1Ev(%"class.std::ios_base::Init"*) unnamed_addr #2

; Function Attrs: nounwind
declare dso_local i32 @__cxa_atexit(void (i8*)*, i8*, i8*) #3

; Function Attrs: noinline norecurse uwtable
define dso_local i32 @main() #4 {
  %1 = alloca i32, align 4
  %2 = alloca i8, align 1
  %3 = alloca [100 x [100 x i8]], align 16
  %4 = alloca i32, align 4
  %5 = alloca i32, align 4
  store i32 0, i32* %1, align 4
  %6 = bitcast [100 x [100 x i8]]* %3 to i8*
  call void @llvm.memset.p0i8.i64(i8* align 16 %6, i8 0, i64 10000, i1 false)
  store i32 0, i32* %4, align 4
  store i32 0, i32* %5, align 4
  %7 = call dereferenceable(280) %"class.std::basic_istream"* @_ZStrsIcSt11char_traitsIcEERSt13basic_istreamIT_T0_ES6_RS3_(%"class.std::basic_istream"* dereferenceable(280) @_ZSt3cin, i8* dereferenceable(1) %2)
  br label %8

8:                                                ; preds = %21, %0
  %9 = load i8, i8* %2, align 1
  %10 = sext i8 %9 to i32
  %11 = icmp ne i32 %10, 10
  br i1 %11, label %12, label %33

12:                                               ; preds = %8
  %13 = load i8, i8* %2, align 1
  %14 = sext i8 %13 to i32
  %15 = icmp eq i32 %14, 32
  br i1 %15, label %16, label %21

16:                                               ; preds = %12
  %17 = load i32, i32* %4, align 4
  %18 = add nsw i32 %17, 1
  store i32 %18, i32* %4, align 4
  store i32 0, i32* %5, align 4
  %19 = call i32 @_ZNSi3getEv(%"class.std::basic_istream"* @_ZSt3cin)
  %20 = trunc i32 %19 to i8
  store i8 %20, i8* %2, align 1
  br label %21

21:                                               ; preds = %16, %12
  %22 = load i8, i8* %2, align 1
  %23 = load i32, i32* %4, align 4
  %24 = sext i32 %23 to i64
  %25 = getelementptr inbounds [100 x [100 x i8]], [100 x [100 x i8]]* %3, i64 0, i64 %24
  %26 = load i32, i32* %5, align 4
  %27 = sext i32 %26 to i64
  %28 = getelementptr inbounds [100 x i8], [100 x i8]* %25, i64 0, i64 %27
  store i8 %22, i8* %28, align 1
  %29 = load i32, i32* %5, align 4
  %30 = add nsw i32 %29, 1
  store i32 %30, i32* %5, align 4
  %31 = call i32 @_ZNSi3getEv(%"class.std::basic_istream"* @_ZSt3cin)
  %32 = trunc i32 %31 to i8
  store i8 %32, i8* %2, align 1
  br label %8

33:                                               ; preds = %8
  br label %34

34:                                               ; preds = %61, %33
  %35 = load i32, i32* %4, align 4
  %36 = icmp sge i32 %35, 1
  br i1 %36, label %37, label %64

37:                                               ; preds = %34
  store i32 0, i32* %5, align 4
  br label %38

38:                                               ; preds = %48, %37
  %39 = load i32, i32* %4, align 4
  %40 = sext i32 %39 to i64
  %41 = getelementptr inbounds [100 x [100 x i8]], [100 x [100 x i8]]* %3, i64 0, i64 %40
  %42 = load i32, i32* %5, align 4
  %43 = sext i32 %42 to i64
  %44 = getelementptr inbounds [100 x i8], [100 x i8]* %41, i64 0, i64 %43
  %45 = load i8, i8* %44, align 1
  %46 = sext i8 %45 to i32
  %47 = icmp ne i32 %46, 0
  br i1 %47, label %48, label %59

48:                                               ; preds = %38
  %49 = load i32, i32* %4, align 4
  %50 = sext i32 %49 to i64
  %51 = getelementptr inbounds [100 x [100 x i8]], [100 x [100 x i8]]* %3, i64 0, i64 %50
  %52 = load i32, i32* %5, align 4
  %53 = sext i32 %52 to i64
  %54 = getelementptr inbounds [100 x i8], [100 x i8]* %51, i64 0, i64 %53
  %55 = load i8, i8* %54, align 1
  %56 = call dereferenceable(272) %"class.std::basic_ostream"* @_ZStlsISt11char_traitsIcEERSt13basic_ostreamIcT_ES5_c(%"class.std::basic_ostream"* dereferenceable(272) @_ZSt4cout, i8 signext %55)
  %57 = load i32, i32* %5, align 4
  %58 = add nsw i32 %57, 1
  store i32 %58, i32* %5, align 4
  br label %38

59:                                               ; preds = %38
  %60 = call dereferenceable(272) %"class.std::basic_ostream"* @_ZStlsISt11char_traitsIcEERSt13basic_ostreamIcT_ES5_PKc(%"class.std::basic_ostream"* dereferenceable(272) @_ZSt4cout, i8* getelementptr inbounds ([2 x i8], [2 x i8]* @.str, i64 0, i64 0))
  br label %61

61:                                               ; preds = %59
  %62 = load i32, i32* %4, align 4
  %63 = add nsw i32 %62, -1
  store i32 %63, i32* %4, align 4
  br label %34

64:                                               ; preds = %34
  store i32 0, i32* %5, align 4
  br label %65

65:                                               ; preds = %73, %64
  %66 = getelementptr inbounds [100 x [100 x i8]], [100 x [100 x i8]]* %3, i64 0, i64 0
  %67 = load i32, i32* %5, align 4
  %68 = sext i32 %67 to i64
  %69 = getelementptr inbounds [100 x i8], [100 x i8]* %66, i64 0, i64 %68
  %70 = load i8, i8* %69, align 1
  %71 = sext i8 %70 to i32
  %72 = icmp ne i32 %71, 0
  br i1 %72, label %73, label %82

73:                                               ; preds = %65
  %74 = getelementptr inbounds [100 x [100 x i8]], [100 x [100 x i8]]* %3, i64 0, i64 0
  %75 = load i32, i32* %5, align 4
  %76 = sext i32 %75 to i64
  %77 = getelementptr inbounds [100 x i8], [100 x i8]* %74, i64 0, i64 %76
  %78 = load i8, i8* %77, align 1
  %79 = call dereferenceable(272) %"class.std::basic_ostream"* @_ZStlsISt11char_traitsIcEERSt13basic_ostreamIcT_ES5_c(%"class.std::basic_ostream"* dereferenceable(272) @_ZSt4cout, i8 signext %78)
  %80 = load i32, i32* %5, align 4
  %81 = add nsw i32 %80, 1
  store i32 %81, i32* %5, align 4
  br label %65

82:                                               ; preds = %65
  ret i32 0
}

; Function Attrs: argmemonly nounwind willreturn
declare void @llvm.memset.p0i8.i64(i8* nocapture writeonly, i8, i64, i1 immarg) #5

declare dso_local dereferenceable(280) %"class.std::basic_istream"* @_ZStrsIcSt11char_traitsIcEERSt13basic_istreamIT_T0_ES6_RS3_(%"class.std::basic_istream"* dereferenceable(280), i8* dereferenceable(1)) #1

declare dso_local i32 @_ZNSi3getEv(%"class.std::basic_istream"*) #1

declare dso_local dereferenceable(272) %"class.std::basic_ostream"* @_ZStlsISt11char_traitsIcEERSt13basic_ostreamIcT_ES5_c(%"class.std::basic_ostream"* dereferenceable(272), i8 signext) #1

declare dso_local dereferenceable(272) %"class.std::basic_ostream"* @_ZStlsISt11char_traitsIcEERSt13basic_ostreamIcT_ES5_PKc(%"class.std::basic_ostream"* dereferenceable(272), i8*) #1

; Function Attrs: noinline uwtable
define internal void @_GLOBAL__sub_I_578.cpp() #0 section ".text.startup" {
  call void @__cxx_global_var_init()
  ret void
}


!llvm.module.flags = !{!0}
!llvm.ident = !{!1}

!0 = !{i32 1, !"wchar_size", i32 4}
!1 = !{!"clang version 10.0.0-4ubuntu1 "}
